target datalayout = "e-m:e-p270:32:32-p271:32:32-p272:64:64-i64:64-i128:128-f80:128-n8:16:32:64-S128"
target triple = "x86_64-pc-linux-gnu"

%struct.CVodeMemRec = type { ptr, double, ptr, ptr, i32, i32, double, double, ptr, i32, i32, ptr, ptr, i32, [13 x ptr], ptr, ptr, ptr, ptr, ptr, ptr, ptr, ptr, ptr, i32, i32, double, i32, i32, i32, i32, i32, double, double, double, double, double, double, double, double, [14 x double], [6 x double], [13 x double], double, double, double, double, double, double, double, i32, double, i32, i64, i32, i32, i32, double, double, double, double, double, double, double, double, double, double, double, double, i64, i32, i64, i64, i64, i64, i64, i64, i64, i32, double, double, double, i64, i64, i64, i64, ptr, i32, ptr, i32, ptr, ptr, ptr, ptr, ptr, i64, double, i32, i64, double, double, double, i32, double, i32, i32, i32, i32, i32, ptr, i64, i32, [6 x [4 x double]], i32, i64, ptr, i32, ptr, ptr, double, double, double, ptr, ptr, ptr, double, double, i32, i32, i64, ptr, i32, ptr, i32, i32, [13 x double], [13 x double], [13 x ptr], i32 }
%struct.CVLsMemRec = type { i32, i32, i32, ptr, ptr, i32, double, i32, double, double, ptr, ptr, ptr, ptr, ptr, ptr, ptr, i64, i64, i64, i64, i64, i64, i64, i64, i64, i64, double, ptr, ptr, ptr, ptr, i32, ptr, ptr, ptr, ptr, i32, ptr, ptr, i32 }
%struct._generic_SUNMatrix = type { ptr, ptr, ptr }
%struct._generic_SUNMatrix_Ops = type { ptr, ptr, ptr, ptr, ptr, ptr, ptr, ptr, ptr, ptr }

@.str = private unnamed_addr constant [116 x i8] c"generated/home/dtcxzyw/WorkSpace/Projects/compilers/llvm-opt-benchmark/bench/sundials/sundials/src/cvode/cvode_ls.c\00", align 1
@.str.9 = private unnamed_addr constant [25 x i8] c"A memory request failed.\00", align 1
@.str.30 = private unnamed_addr constant [30 x i8] c"Linear solver memory is NULL.\00", align 1
@__func__.cvLsInitialize = private unnamed_addr constant [15 x i8] c"cvLsInitialize\00", align 1
@.str.32 = private unnamed_addr constant [53 x i8] c"No Jacobian constructor available for SUNMatrix type\00", align 1

; Function Attrs: nounwind uwtable
define i32 @cvLsInitializeCounters(ptr noundef %0) #0 {
  %2 = alloca ptr, align 8
  store ptr %0, ptr %2, align 8, !tbaa !43
  %3 = load ptr, ptr %2, align 8, !tbaa !43
  %4 = getelementptr inbounds nuw %struct.CVLsMemRec, ptr %3, i32 0, i32 18
  store i64 0, ptr %4, align 8, !tbaa !95
  %5 = load ptr, ptr %2, align 8, !tbaa !43
  %6 = getelementptr inbounds nuw %struct.CVLsMemRec, ptr %5, i32 0, i32 19
  store i64 0, ptr %6, align 8, !tbaa !115
  %7 = load ptr, ptr %2, align 8, !tbaa !43
  %8 = getelementptr inbounds nuw %struct.CVLsMemRec, ptr %7, i32 0, i32 20
  store i64 0, ptr %8, align 8, !tbaa !93
  %9 = load ptr, ptr %2, align 8, !tbaa !43
  %10 = getelementptr inbounds nuw %struct.CVLsMemRec, ptr %9, i32 0, i32 21
  store i64 0, ptr %10, align 8, !tbaa !97
  %11 = load ptr, ptr %2, align 8, !tbaa !43
  %12 = getelementptr inbounds nuw %struct.CVLsMemRec, ptr %11, i32 0, i32 22
  store i64 0, ptr %12, align 8, !tbaa !106
  %13 = load ptr, ptr %2, align 8, !tbaa !43
  %14 = getelementptr inbounds nuw %struct.CVLsMemRec, ptr %13, i32 0, i32 23
  store i64 0, ptr %14, align 8, !tbaa !100
  %15 = load ptr, ptr %2, align 8, !tbaa !43
  %16 = getelementptr inbounds nuw %struct.CVLsMemRec, ptr %15, i32 0, i32 24
  store i64 0, ptr %16, align 8, !tbaa !107
  %17 = load ptr, ptr %2, align 8, !tbaa !43
  %18 = getelementptr inbounds nuw %struct.CVLsMemRec, ptr %17, i32 0, i32 25
  store i64 0, ptr %18, align 8, !tbaa !102
  %19 = load ptr, ptr %2, align 8, !tbaa !43
  %20 = getelementptr inbounds nuw %struct.CVLsMemRec, ptr %19, i32 0, i32 26
  store i64 0, ptr %20, align 8, !tbaa !116
  ret i32 0
}

; Function Attrs: nounwind uwtable
define i32 @cvLsInitialize(ptr noundef %0) #0 {
  %2 = alloca i32, align 4
  %3 = alloca ptr, align 8
  %4 = alloca ptr, align 8
  %5 = alloca i32, align 4
  %6 = alloca i32, align 4
  store ptr %0, ptr %3, align 8, !tbaa !11
  call void @llvm.lifetime.start.p0(i64 8, ptr %4) #7
  call void @llvm.lifetime.start.p0(i64 4, ptr %5) #7
  %7 = load ptr, ptr %3, align 8, !tbaa !11
  %8 = getelementptr inbounds nuw %struct.CVodeMemRec, ptr %7, i32 0, i32 94
  %9 = load ptr, ptr %8, align 8, !tbaa !79
  %10 = icmp eq ptr %9, null
  br i1 %10, label %11, label %13

11:                                               ; preds = %1
  %12 = load ptr, ptr %3, align 8, !tbaa !11
  call void (ptr, i32, i32, ptr, ptr, ptr, ...) @cvProcessError(ptr noundef %12, i32 noundef -2, i32 noundef 1408, ptr noundef @__func__.cvLsInitialize, ptr noundef @.str, ptr noundef @.str.30)
  store i32 -2, ptr %2, align 4
  store i32 1, ptr %6, align 4
  br label %181

13:                                               ; preds = %1
  %14 = load ptr, ptr %3, align 8, !tbaa !11
  %15 = getelementptr inbounds nuw %struct.CVodeMemRec, ptr %14, i32 0, i32 94
  %16 = load ptr, ptr %15, align 8, !tbaa !79
  store ptr %16, ptr %4, align 8, !tbaa !43
  %17 = load ptr, ptr %4, align 8, !tbaa !43
  %18 = getelementptr inbounds nuw %struct.CVLsMemRec, ptr %17, i32 0, i32 11
  %19 = load ptr, ptr %18, align 8, !tbaa !72
  %20 = icmp ne ptr %19, null
  br i1 %20, label %21, label %113

21:                                               ; preds = %13
  %22 = load ptr, ptr %4, align 8, !tbaa !43
  %23 = getelementptr inbounds nuw %struct.CVLsMemRec, ptr %22, i32 0, i32 37
  %24 = load i32, ptr %23, align 8, !tbaa !58
  %25 = icmp ne i32 %24, 0
  br i1 %25, label %26, label %32

26:                                               ; preds = %21
  %27 = load ptr, ptr %3, align 8, !tbaa !11
  %28 = getelementptr inbounds nuw %struct.CVodeMemRec, ptr %27, i32 0, i32 3
  %29 = load ptr, ptr %28, align 8, !tbaa !64
  %30 = load ptr, ptr %4, align 8, !tbaa !43
  %31 = getelementptr inbounds nuw %struct.CVLsMemRec, ptr %30, i32 0, i32 39
  store ptr %29, ptr %31, align 8, !tbaa !60
  br label %112

32:                                               ; preds = %21
  %33 = load ptr, ptr %4, align 8, !tbaa !43
  %34 = getelementptr inbounds nuw %struct.CVLsMemRec, ptr %33, i32 0, i32 38
  store ptr @cvLsLinSys, ptr %34, align 8, !tbaa !59
  %35 = load ptr, ptr %3, align 8, !tbaa !11
  %36 = load ptr, ptr %4, align 8, !tbaa !43
  %37 = getelementptr inbounds nuw %struct.CVLsMemRec, ptr %36, i32 0, i32 39
  store ptr %35, ptr %37, align 8, !tbaa !60
  %38 = load ptr, ptr %4, align 8, !tbaa !43
  %39 = getelementptr inbounds nuw %struct.CVLsMemRec, ptr %38, i32 0, i32 2
  %40 = load i32, ptr %39, align 8, !tbaa !49
  %41 = icmp ne i32 %40, 0
  br i1 %41, label %42, label %84

42:                                               ; preds = %32
  store i32 0, ptr %5, align 4, !tbaa !20
  %43 = load ptr, ptr %4, align 8, !tbaa !43
  %44 = getelementptr inbounds nuw %struct.CVLsMemRec, ptr %43, i32 0, i32 11
  %45 = load ptr, ptr %44, align 8, !tbaa !72
  %46 = getelementptr inbounds nuw %struct._generic_SUNMatrix, ptr %45, i32 0, i32 1
  %47 = load ptr, ptr %46, align 8, !tbaa !80
  %48 = getelementptr inbounds nuw %struct._generic_SUNMatrix_Ops, ptr %47, i32 0, i32 0
  %49 = load ptr, ptr %48, align 8, !tbaa !83
  %50 = icmp ne ptr %49, null
  br i1 %50, label %51, label %73

51:                                               ; preds = %42
  %52 = load ptr, ptr %4, align 8, !tbaa !43
  %53 = getelementptr inbounds nuw %struct.CVLsMemRec, ptr %52, i32 0, i32 11
  %54 = load ptr, ptr %53, align 8, !tbaa !72
  %55 = call i32 @SUNMatGetID(ptr noundef %54)
  %56 = icmp eq i32 %55, 0
  br i1 %56, label %63, label %57

57:                                               ; preds = %51
  %58 = load ptr, ptr %4, align 8, !tbaa !43
  %59 = getelementptr inbounds nuw %struct.CVLsMemRec, ptr %58, i32 0, i32 11
  %60 = load ptr, ptr %59, align 8, !tbaa !72
  %61 = call i32 @SUNMatGetID(ptr noundef %60)
  %62 = icmp eq i32 %61, 3
  br i1 %62, label %63, label %69

63:                                               ; preds = %57, %51
  %64 = load ptr, ptr %4, align 8, !tbaa !43
  %65 = getelementptr inbounds nuw %struct.CVLsMemRec, ptr %64, i32 0, i32 3
  store ptr @cvLsDQJac, ptr %65, align 8, !tbaa !50
  %66 = load ptr, ptr %3, align 8, !tbaa !11
  %67 = load ptr, ptr %4, align 8, !tbaa !43
  %68 = getelementptr inbounds nuw %struct.CVLsMemRec, ptr %67, i32 0, i32 4
  store ptr %66, ptr %68, align 8, !tbaa !51
  br label %72

69:                                               ; preds = %57
  %70 = load i32, ptr %5, align 4, !tbaa !20
  %71 = add nsw i32 %70, 1
  store i32 %71, ptr %5, align 4, !tbaa !20
  br label %72

72:                                               ; preds = %69, %63
  br label %76

73:                                               ; preds = %42
  %74 = load i32, ptr %5, align 4, !tbaa !20
  %75 = add nsw i32 %74, 1
  store i32 %75, ptr %5, align 4, !tbaa !20
  br label %76

76:                                               ; preds = %73, %72
  %77 = load i32, ptr %5, align 4, !tbaa !20
  %78 = icmp ne i32 %77, 0
  br i1 %78, label %79, label %83

79:                                               ; preds = %76
  %80 = load ptr, ptr %3, align 8, !tbaa !11
  call void (ptr, i32, i32, ptr, ptr, ptr, ...) @cvProcessError(ptr noundef %80, i32 noundef -3, i32 noundef 1449, ptr noundef @__func__.cvLsInitialize, ptr noundef @.str, ptr noundef @.str.32)
  %81 = load ptr, ptr %4, align 8, !tbaa !43
  %82 = getelementptr inbounds nuw %struct.CVLsMemRec, ptr %81, i32 0, i32 40
  store i32 -3, ptr %82, align 8, !tbaa !70
  store i32 -3, ptr %2, align 4
  store i32 1, ptr %6, align 4
  br label %181

83:                                               ; preds = %76
  br label %90

84:                                               ; preds = %32
  %85 = load ptr, ptr %3, align 8, !tbaa !11
  %86 = getelementptr inbounds nuw %struct.CVodeMemRec, ptr %85, i32 0, i32 3
  %87 = load ptr, ptr %86, align 8, !tbaa !64
  %88 = load ptr, ptr %4, align 8, !tbaa !43
  %89 = getelementptr inbounds nuw %struct.CVLsMemRec, ptr %88, i32 0, i32 4
  store ptr %87, ptr %89, align 8, !tbaa !51
  br label %90

90:                                               ; preds = %84, %83
  %91 = load ptr, ptr %4, align 8, !tbaa !43
  %92 = getelementptr inbounds nuw %struct.CVLsMemRec, ptr %91, i32 0, i32 12
  %93 = load ptr, ptr %92, align 8, !tbaa !73
  %94 = icmp eq ptr %93, null
  br i1 %94, label %95, label %111

95:                                               ; preds = %90
  %96 = load ptr, ptr %4, align 8, !tbaa !43
  %97 = getelementptr inbounds nuw %struct.CVLsMemRec, ptr %96, i32 0, i32 11
  %98 = load ptr, ptr %97, align 8, !tbaa !72
  %99 = call ptr @SUNMatClone(ptr noundef %98)
  %100 = load ptr, ptr %4, align 8, !tbaa !43
  %101 = getelementptr inbounds nuw %struct.CVLsMemRec, ptr %100, i32 0, i32 12
  store ptr %99, ptr %101, align 8, !tbaa !73
  %102 = load ptr, ptr %4, align 8, !tbaa !43
  %103 = getelementptr inbounds nuw %struct.CVLsMemRec, ptr %102, i32 0, i32 12
  %104 = load ptr, ptr %103, align 8, !tbaa !73
  %105 = icmp eq ptr %104, null
  br i1 %105, label %106, label %110

106:                                              ; preds = %95
  %107 = load ptr, ptr %3, align 8, !tbaa !11
  call void (ptr, i32, i32, ptr, ptr, ptr, ...) @cvProcessError(ptr noundef %107, i32 noundef -4, i32 noundef 1467, ptr noundef @__func__.cvLsInitialize, ptr noundef @.str, ptr noundef @.str.9)
  %108 = load ptr, ptr %4, align 8, !tbaa !43
  %109 = getelementptr inbounds nuw %struct.CVLsMemRec, ptr %108, i32 0, i32 40
  store i32 -4, ptr %109, align 8, !tbaa !70
  store i32 -4, ptr %2, align 4
  store i32 1, ptr %6, align 4
  br label %181

110:                                              ; preds = %95
  br label %111

111:                                              ; preds = %110, %90
  br label %112

112:                                              ; preds = %111, %26
  br label %126

113:                                              ; preds = %13
  %114 = load ptr, ptr %4, align 8, !tbaa !43
  %115 = getelementptr inbounds nuw %struct.CVLsMemRec, ptr %114, i32 0, i32 2
  store i32 0, ptr %115, align 8, !tbaa !49
  %116 = load ptr, ptr %4, align 8, !tbaa !43
  %117 = getelementptr inbounds nuw %struct.CVLsMemRec, ptr %116, i32 0, i32 3
  store ptr null, ptr %117, align 8, !tbaa !50
  %118 = load ptr, ptr %4, align 8, !tbaa !43
  %119 = getelementptr inbounds nuw %struct.CVLsMemRec, ptr %118, i32 0, i32 4
  store ptr null, ptr %119, align 8, !tbaa !51
  %120 = load ptr, ptr %4, align 8, !tbaa !43
  %121 = getelementptr inbounds nuw %struct.CVLsMemRec, ptr %120, i32 0, i32 37
  store i32 0, ptr %121, align 8, !tbaa !58
  %122 = load ptr, ptr %4, align 8, !tbaa !43
  %123 = getelementptr inbounds nuw %struct.CVLsMemRec, ptr %122, i32 0, i32 38
  store ptr null, ptr %123, align 8, !tbaa !59
  %124 = load ptr, ptr %4, align 8, !tbaa !43
  %125 = getelementptr inbounds nuw %struct.CVLsMemRec, ptr %124, i32 0, i32 39
  store ptr null, ptr %125, align 8, !tbaa !60
  br label %126

126:                                              ; preds = %113, %112
  %127 = load ptr, ptr %4, align 8, !tbaa !43
  %128 = call i32 @cvLsInitializeCounters(ptr noundef %127)
  %129 = load ptr, ptr %4, align 8, !tbaa !43
  %130 = getelementptr inbounds nuw %struct.CVLsMemRec, ptr %129, i32 0, i32 32
  %131 = load i32, ptr %130, align 8, !tbaa !52
  %132 = icmp ne i32 %131, 0
  br i1 %132, label %133, label %141

133:                                              ; preds = %126
  %134 = load ptr, ptr %4, align 8, !tbaa !43
  %135 = getelementptr inbounds nuw %struct.CVLsMemRec, ptr %134, i32 0, i32 33
  store ptr null, ptr %135, align 8, !tbaa !53
  %136 = load ptr, ptr %4, align 8, !tbaa !43
  %137 = getelementptr inbounds nuw %struct.CVLsMemRec, ptr %136, i32 0, i32 34
  store ptr @cvLsDQJtimes, ptr %137, align 8, !tbaa !54
  %138 = load ptr, ptr %3, align 8, !tbaa !11
  %139 = load ptr, ptr %4, align 8, !tbaa !43
  %140 = getelementptr inbounds nuw %struct.CVLsMemRec, ptr %139, i32 0, i32 36
  store ptr %138, ptr %140, align 8, !tbaa !57
  br label %147

141:                                              ; preds = %126
  %142 = load ptr, ptr %3, align 8, !tbaa !11
  %143 = getelementptr inbounds nuw %struct.CVodeMemRec, ptr %142, i32 0, i32 3
  %144 = load ptr, ptr %143, align 8, !tbaa !64
  %145 = load ptr, ptr %4, align 8, !tbaa !43
  %146 = getelementptr inbounds nuw %struct.CVLsMemRec, ptr %145, i32 0, i32 36
  store ptr %144, ptr %146, align 8, !tbaa !57
  br label %147

147:                                              ; preds = %141, %133
  %148 = load ptr, ptr %4, align 8, !tbaa !43
  %149 = getelementptr inbounds nuw %struct.CVLsMemRec, ptr %148, i32 0, i32 11
  %150 = load ptr, ptr %149, align 8, !tbaa !72
  %151 = icmp eq ptr %150, null
  br i1 %151, label %152, label %160

152:                                              ; preds = %147
  %153 = load ptr, ptr %4, align 8, !tbaa !43
  %154 = getelementptr inbounds nuw %struct.CVLsMemRec, ptr %153, i32 0, i32 28
  %155 = load ptr, ptr %154, align 8, !tbaa !61
  %156 = icmp eq ptr %155, null
  br i1 %156, label %157, label %160

157:                                              ; preds = %152
  %158 = load ptr, ptr %3, align 8, !tbaa !11
  %159 = getelementptr inbounds nuw %struct.CVodeMemRec, ptr %158, i32 0, i32 91
  store ptr null, ptr %159, align 8, !tbaa !41
  br label %160

160:                                              ; preds = %157, %152, %147
  %161 = load ptr, ptr %4, align 8, !tbaa !43
  %162 = getelementptr inbounds nuw %struct.CVLsMemRec, ptr %161, i32 0, i32 10
  %163 = load ptr, ptr %162, align 8, !tbaa !45
  %164 = call i32 @SUNLinSolGetType(ptr noundef %163)
  %165 = icmp eq i32 %164, 3
  br i1 %165, label %166, label %171

166:                                              ; preds = %160
  %167 = load ptr, ptr %3, align 8, !tbaa !11
  %168 = getelementptr inbounds nuw %struct.CVodeMemRec, ptr %167, i32 0, i32 91
  store ptr null, ptr %168, align 8, !tbaa !41
  %169 = load ptr, ptr %4, align 8, !tbaa !43
  %170 = getelementptr inbounds nuw %struct.CVLsMemRec, ptr %169, i32 0, i32 7
  store i32 0, ptr %170, align 8, !tbaa !78
  br label %171

171:                                              ; preds = %166, %160
  %172 = load ptr, ptr %4, align 8, !tbaa !43
  %173 = getelementptr inbounds nuw %struct.CVLsMemRec, ptr %172, i32 0, i32 10
  %174 = load ptr, ptr %173, align 8, !tbaa !45
  %175 = call i32 @SUNLinSolInitialize(ptr noundef %174)
  %176 = load ptr, ptr %4, align 8, !tbaa !43
  %177 = getelementptr inbounds nuw %struct.CVLsMemRec, ptr %176, i32 0, i32 40
  store i32 %175, ptr %177, align 8, !tbaa !70
  %178 = load ptr, ptr %4, align 8, !tbaa !43
  %179 = getelementptr inbounds nuw %struct.CVLsMemRec, ptr %178, i32 0, i32 40
  %180 = load i32, ptr %179, align 8, !tbaa !70
  store i32 %180, ptr %2, align 4
  store i32 1, ptr %6, align 4
  br label %181

181:                                              ; preds = %171, %106, %79, %11
  call void @llvm.lifetime.end.p0(i64 4, ptr %5) #7
  call void @llvm.lifetime.end.p0(i64 8, ptr %4) #7
  %182 = load i32, ptr %2, align 4
  ret i32 %182
}