; Function Attrs: nounwind uwtable
define i32 @cvLsInitialize(ptr noundef %0) #0 {
  %2 = getelementptr inbounds nuw i8, ptr %0, i64 1040
  %3 = load ptr, ptr %2, align 8, !tbaa !69
  %4 = icmp eq ptr %3, null
  br i1 %4, label %5, label %6

5:                                                ; preds = %1
  tail call void (ptr, i32, i32, ptr, ptr, ptr, ...) @cvProcessError(ptr noundef nonnull %0, i32 noundef -2, i32 noundef 1408, ptr noundef nonnull @__func__.cvLsInitialize, ptr noundef nonnull @.str, ptr noundef nonnull @.str.30) #13
  br label %85

6:                                                ; preds = %1
  %7 = getelementptr inbounds nuw i8, ptr %3, i64 80
  %8 = load ptr, ptr %7, align 8, !tbaa !61
  %.not = icmp eq ptr %8, null
  br i1 %.not, label %48, label %9

9:                                                ; preds = %6
  %10 = getelementptr inbounds nuw i8, ptr %3, i64 288
  %11 = load i32, ptr %10, align 8, !tbaa !50
  %.not55 = icmp eq i32 %11, 0
  %12 = getelementptr inbounds nuw i8, ptr %3, i64 304
  br i1 %.not55, label %16, label %13

13:                                               ; preds = %9
  %14 = getelementptr inbounds nuw i8, ptr %0, i64 24
  %15 = load ptr, ptr %14, align 8, !tbaa !53
  store ptr %15, ptr %12, align 8, !tbaa !52
  br label %53

16:                                               ; preds = %9
  %17 = getelementptr inbounds nuw i8, ptr %3, i64 296
  store ptr @cvLsLinSys, ptr %17, align 8, !tbaa !51
  store ptr %0, ptr %12, align 8, !tbaa !52
  %18 = getelementptr inbounds nuw i8, ptr %3, i64 8
  %19 = load i32, ptr %18, align 8, !tbaa !41
  %.not56 = icmp eq i32 %19, 0
  br i1 %.not56, label %34, label %20

20:                                               ; preds = %16
  %21 = getelementptr inbounds nuw i8, ptr %8, i64 8
  %22 = load ptr, ptr %21, align 8, !tbaa !70
  %23 = load ptr, ptr %22, align 8, !tbaa !73
  %.not57 = icmp eq ptr %23, null
  br i1 %.not57, label %32, label %24

24:                                               ; preds = %20
  %25 = tail call i32 @SUNMatGetID(ptr noundef nonnull %8) #13
  %26 = icmp eq i32 %25, 0
  br i1 %26, label %.critedge, label %27

27:                                               ; preds = %24
  %28 = load ptr, ptr %7, align 8, !tbaa !61
  %29 = tail call i32 @SUNMatGetID(ptr noundef %28) #13
  %30 = icmp eq i32 %29, 3
  br i1 %30, label %.critedge, label %32

.critedge:                                        ; preds = %27, %24
  %31 = getelementptr inbounds nuw i8, ptr %3, i64 16
  store ptr @cvLsDQJac, ptr %31, align 8, !tbaa !42
  br label %37

32:                                               ; preds = %27, %20
  tail call void (ptr, i32, i32, ptr, ptr, ptr, ...) @cvProcessError(ptr noundef nonnull %0, i32 noundef -3, i32 noundef 1449, ptr noundef nonnull @__func__.cvLsInitialize, ptr noundef nonnull @.str, ptr noundef nonnull @.str.32) #13
  %33 = getelementptr inbounds nuw i8, ptr %3, i64 312
  store i32 -3, ptr %33, align 8, !tbaa !59
  br label %85

34:                                               ; preds = %16
  %35 = getelementptr inbounds nuw i8, ptr %0, i64 24
  %36 = load ptr, ptr %35, align 8, !tbaa !53
  br label %37

37:                                               ; preds = %.critedge, %34
  %.sink60 = phi ptr [ %0, %.critedge ], [ %36, %34 ]
  %38 = getelementptr inbounds nuw i8, ptr %3, i64 24
  store ptr %.sink60, ptr %38, align 8, !tbaa !43
  %39 = getelementptr inbounds nuw i8, ptr %3, i64 88
  %40 = load ptr, ptr %39, align 8, !tbaa !62
  %41 = icmp eq ptr %40, null
  br i1 %41, label %42, label %53

42:                                               ; preds = %37
  %43 = load ptr, ptr %7, align 8, !tbaa !61
  %44 = tail call ptr @SUNMatClone(ptr noundef %43) #13
  store ptr %44, ptr %39, align 8, !tbaa !62
  %45 = icmp eq ptr %44, null
  br i1 %45, label %46, label %53

46:                                               ; preds = %42
  tail call void (ptr, i32, i32, ptr, ptr, ptr, ...) @cvProcessError(ptr noundef nonnull %0, i32 noundef -4, i32 noundef 1467, ptr noundef nonnull @__func__.cvLsInitialize, ptr noundef nonnull @.str, ptr noundef nonnull @.str.9) #13
  %47 = getelementptr inbounds nuw i8, ptr %3, i64 312
  store i32 -4, ptr %47, align 8, !tbaa !59
  br label %85

48:                                               ; preds = %6
  %49 = getelementptr inbounds nuw i8, ptr %3, i64 8
  store i32 0, ptr %49, align 8, !tbaa !41
  %50 = getelementptr inbounds nuw i8, ptr %3, i64 16
  %51 = getelementptr inbounds nuw i8, ptr %3, i64 288
  store i32 0, ptr %51, align 8, !tbaa !50
  %52 = getelementptr inbounds nuw i8, ptr %3, i64 296
  tail call void @llvm.memset.p0.i64(ptr noundef nonnull align 8 dereferenceable(16) %50, i8 0, i64 16, i1 false)
  tail call void @llvm.memset.p0.i64(ptr noundef nonnull align 8 dereferenceable(16) %52, i8 0, i64 16, i1 false)
  br label %53

53:                                               ; preds = %13, %42, %37, %48
  %54 = getelementptr inbounds nuw i8, ptr %3, i64 136
  tail call void @llvm.memset.p0.i64(ptr noundef nonnull align 8 dereferenceable(72) %54, i8 0, i64 72, i1 false)
  %55 = getelementptr inbounds nuw i8, ptr %3, i64 248
  %56 = load i32, ptr %55, align 8, !tbaa !44
  %.not59 = icmp eq i32 %56, 0
  br i1 %.not59, label %60, label %57

57:                                               ; preds = %53
  %58 = getelementptr inbounds nuw i8, ptr %3, i64 256
  store ptr null, ptr %58, align 8, !tbaa !45
  %59 = getelementptr inbounds nuw i8, ptr %3, i64 264
  store ptr @cvLsDQJtimes, ptr %59, align 8, !tbaa !46
  br label %63

60:                                               ; preds = %53
  %61 = getelementptr inbounds nuw i8, ptr %0, i64 24
  %62 = load ptr, ptr %61, align 8, !tbaa !53
  br label %63

63:                                               ; preds = %60, %57
  %.sink = phi ptr [ %62, %60 ], [ %0, %57 ]
  %64 = getelementptr inbounds nuw i8, ptr %3, i64 280
  store ptr %.sink, ptr %64, align 8, !tbaa !49
  %65 = load ptr, ptr %7, align 8, !tbaa !61
  %66 = icmp eq ptr %65, null
  br i1 %66, label %67, label %73

67:                                               ; preds = %63
  %68 = getelementptr inbounds nuw i8, ptr %3, i64 216
  %69 = load ptr, ptr %68, align 8, !tbaa !75
  %70 = icmp eq ptr %69, null
  br i1 %70, label %71, label %73

71:                                               ; preds = %67
  %72 = getelementptr inbounds nuw i8, ptr %0, i64 1016
  store ptr null, ptr %72, align 8, !tbaa !33
  br label %73

73:                                               ; preds = %71, %67, %63
  %74 = getelementptr inbounds nuw i8, ptr %3, i64 72
  %75 = load ptr, ptr %74, align 8, !tbaa !35
  %76 = tail call i32 @SUNLinSolGetType(ptr noundef %75) #13
  %77 = icmp eq i32 %76, 3
  br i1 %77, label %78, label %81

78:                                               ; preds = %73
  %79 = getelementptr inbounds nuw i8, ptr %0, i64 1016
  store ptr null, ptr %79, align 8, !tbaa !33
  %80 = getelementptr inbounds nuw i8, ptr %3, i64 48
  store i32 0, ptr %80, align 8, !tbaa !68
  br label %81

81:                                               ; preds = %78, %73
  %82 = load ptr, ptr %74, align 8, !tbaa !35
  %83 = tail call i32 @SUNLinSolInitialize(ptr noundef %82) #13
  %84 = getelementptr inbounds nuw i8, ptr %3, i64 312
  store i32 %83, ptr %84, align 8, !tbaa !59
  br label %85

85:                                               ; preds = %81, %46, %32, %5
  %.053 = phi i32 [ -2, %5 ], [ %83, %81 ], [ -3, %32 ], [ -4, %46 ]
  ret i32 %.053
}